	.file	"_a.cpp"
	.intel_syntax noprefix
	.text
	.globl	_Z8hiMyLangiiiiiiiiiiiiiiiiiiiiiiiiii
	.def	_Z8hiMyLangiiiiiiiiiiiiiiiiiiiiiiiiii;	.scl	2;	.type	32;	.endef
	.seh_proc	_Z8hiMyLangiiiiiiiiiiiiiiiiiiiiiiiiii
_Z8hiMyLangiiiiiiiiiiiiiiiiiiiiiiiiii:
.LFB0:
	push	rbp
	.seh_pushreg	rbp
	mov	rbp, rsp
	.seh_setframe	rbp, 0
	sub	rsp, 16
	.seh_stackalloc	16
	.seh_endprologue
	mov	QWORD PTR 16[rbp], rcx
	mov	DWORD PTR 24[rbp], edx
	mov	DWORD PTR 32[rbp], r8d
	mov	DWORD PTR 40[rbp], r9d
	mov	edx, DWORD PTR 32[rbp]
	mov	eax, DWORD PTR 24[rbp]
	add	eax, edx
	cmp	eax, 1
	jne	.L2
	cmp	DWORD PTR 32[rbp], 2
	jne	.L2
	cmp	DWORD PTR 40[rbp], 3
	jne	.L2
	cmp	DWORD PTR 48[rbp], 4
	jne	.L2
	cmp	DWORD PTR 56[rbp], 5
	jne	.L2
	cmp	DWORD PTR 64[rbp], 6
	jne	.L2
	cmp	DWORD PTR 72[rbp], 7
	jne	.L2
	cmp	DWORD PTR 80[rbp], 8
	jne	.L2
	cmp	DWORD PTR 88[rbp], 9
	jne	.L2
	cmp	DWORD PTR 96[rbp], 10
	jne	.L2
	cmp	DWORD PTR 104[rbp], 11
	jne	.L2
	cmp	DWORD PTR 112[rbp], 12
	jne	.L2
	cmp	DWORD PTR 120[rbp], 13
	jne	.L2
	cmp	DWORD PTR 128[rbp], 14
	jne	.L2
	cmp	DWORD PTR 136[rbp], 15
	jne	.L2
	cmp	DWORD PTR 144[rbp], 16
	jne	.L2
	cmp	DWORD PTR 152[rbp], 17
	jne	.L2
	cmp	DWORD PTR 160[rbp], 18
	jne	.L2
	cmp	DWORD PTR 168[rbp], 19
	jne	.L2
	cmp	DWORD PTR 176[rbp], 20
	jne	.L2
	cmp	DWORD PTR 184[rbp], 21
	jne	.L2
	cmp	DWORD PTR 192[rbp], 22
	jne	.L2
	cmp	DWORD PTR 200[rbp], 23
	jne	.L2
	cmp	DWORD PTR 208[rbp], 24
	jne	.L2
	cmp	DWORD PTR 216[rbp], 25
	jne	.L2
	cmp	DWORD PTR 224[rbp], 26
	jne	.L2
	mov	DWORD PTR -4[rbp], 1
.L2:
	mov	rax, QWORD PTR 16[rbp]
	mov	edx, DWORD PTR 24[rbp]
	mov	DWORD PTR [rax], edx
	mov	rax, QWORD PTR 16[rbp]
	mov	edx, DWORD PTR 32[rbp]
	mov	DWORD PTR 4[rax], edx
	mov	rax, QWORD PTR 16[rbp]
	mov	edx, DWORD PTR 40[rbp]
	mov	DWORD PTR 8[rax], edx
	mov	rax, QWORD PTR 16[rbp]
	mov	edx, DWORD PTR 48[rbp]
	mov	DWORD PTR 12[rax], edx
	mov	rax, QWORD PTR 16[rbp]
	mov	edx, DWORD PTR 56[rbp]
	mov	DWORD PTR 16[rax], edx
	mov	rax, QWORD PTR 16[rbp]
	mov	edx, DWORD PTR 64[rbp]
	mov	DWORD PTR 20[rax], edx
	mov	rax, QWORD PTR 16[rbp]
	mov	edx, DWORD PTR 72[rbp]
	mov	DWORD PTR 24[rax], edx
	mov	rax, QWORD PTR 16[rbp]
	mov	edx, DWORD PTR 80[rbp]
	mov	DWORD PTR 28[rax], edx
	mov	rax, QWORD PTR 16[rbp]
	mov	edx, DWORD PTR 88[rbp]
	mov	DWORD PTR 32[rax], edx
	mov	rax, QWORD PTR 16[rbp]
	mov	edx, DWORD PTR 96[rbp]
	mov	DWORD PTR 36[rax], edx
	mov	rax, QWORD PTR 16[rbp]
	mov	edx, DWORD PTR 104[rbp]
	mov	DWORD PTR 40[rax], edx
	mov	rax, QWORD PTR 16[rbp]
	mov	edx, DWORD PTR 112[rbp]
	mov	DWORD PTR 44[rax], edx
	mov	rax, QWORD PTR 16[rbp]
	mov	edx, DWORD PTR 120[rbp]
	mov	DWORD PTR 48[rax], edx
	mov	rax, QWORD PTR 16[rbp]
	mov	edx, DWORD PTR 128[rbp]
	mov	DWORD PTR 52[rax], edx
	mov	rax, QWORD PTR 16[rbp]
	mov	edx, DWORD PTR 136[rbp]
	mov	DWORD PTR 56[rax], edx
	mov	rax, QWORD PTR 16[rbp]
	mov	edx, DWORD PTR 144[rbp]
	mov	DWORD PTR 60[rax], edx
	mov	rax, QWORD PTR 16[rbp]
	mov	edx, DWORD PTR 152[rbp]
	mov	DWORD PTR 64[rax], edx
	mov	rax, QWORD PTR 16[rbp]
	mov	edx, DWORD PTR 160[rbp]
	mov	DWORD PTR 68[rax], edx
	mov	rax, QWORD PTR 16[rbp]
	mov	edx, DWORD PTR 168[rbp]
	mov	DWORD PTR 72[rax], edx
	mov	rax, QWORD PTR 16[rbp]
	mov	edx, DWORD PTR 176[rbp]
	mov	DWORD PTR 76[rax], edx
	mov	rax, QWORD PTR 16[rbp]
	mov	edx, DWORD PTR 184[rbp]
	mov	DWORD PTR 80[rax], edx
	mov	rax, QWORD PTR 16[rbp]
	mov	edx, DWORD PTR 192[rbp]
	mov	DWORD PTR 84[rax], edx
	mov	rax, QWORD PTR 16[rbp]
	mov	edx, DWORD PTR 200[rbp]
	mov	DWORD PTR 88[rax], edx
	mov	rax, QWORD PTR 16[rbp]
	mov	edx, DWORD PTR 208[rbp]
	mov	DWORD PTR 92[rax], edx
	mov	rax, QWORD PTR 16[rbp]
	mov	edx, DWORD PTR 216[rbp]
	mov	DWORD PTR 96[rax], edx
	mov	rax, QWORD PTR 16[rbp]
	mov	edx, DWORD PTR 224[rbp]
	mov	DWORD PTR 100[rax], edx
	mov	rax, QWORD PTR 16[rbp]
	add	rsp, 16
	pop	rbp
	ret
	.seh_endproc
	.globl	_Z3dddiiiiiiiiiiiii
	.def	_Z3dddiiiiiiiiiiiii;	.scl	2;	.type	32;	.endef
	.seh_proc	_Z3dddiiiiiiiiiiiii
_Z3dddiiiiiiiiiiiii:
.LFB1:
	push	rbp
	.seh_pushreg	rbp
	mov	rbp, rsp
	.seh_setframe	rbp, 0
	.seh_endprologue
	mov	DWORD PTR 16[rbp], ecx
	mov	DWORD PTR 24[rbp], edx
	mov	DWORD PTR 32[rbp], r8d
	mov	DWORD PTR 40[rbp], r9d
	mov	edx, DWORD PTR 16[rbp]
	mov	eax, DWORD PTR 24[rbp]
	add	edx, eax
	mov	eax, DWORD PTR 32[rbp]
	add	edx, eax
	mov	eax, DWORD PTR 40[rbp]
	add	edx, eax
	mov	eax, DWORD PTR 48[rbp]
	add	edx, eax
	mov	eax, DWORD PTR 56[rbp]
	add	edx, eax
	mov	eax, DWORD PTR 64[rbp]
	add	edx, eax
	mov	eax, DWORD PTR 72[rbp]
	add	edx, eax
	mov	eax, DWORD PTR 80[rbp]
	add	edx, eax
	mov	eax, DWORD PTR 88[rbp]
	add	edx, eax
	mov	eax, DWORD PTR 96[rbp]
	add	edx, eax
	mov	eax, DWORD PTR 104[rbp]
	add	edx, eax
	mov	eax, DWORD PTR 112[rbp]
	add	eax, edx
	pop	rbp
	ret
	.seh_endproc
	.globl	main
	.def	main;	.scl	2;	.type	32;	.endef
	.seh_proc	main
main:
.LFB2:
	push	rbp
	.seh_pushreg	rbp
	sub	rsp, 336
	.seh_stackalloc	336
	lea	rbp, 128[rsp]
	.seh_setframe	rbp, 128
	.seh_endprologue
	call	__main
	lea	rax, 96[rbp]
	mov	DWORD PTR 208[rsp], 26
	mov	DWORD PTR 200[rsp], 25
	mov	DWORD PTR 192[rsp], 24
	mov	DWORD PTR 184[rsp], 23
	mov	DWORD PTR 176[rsp], 22
	mov	DWORD PTR 168[rsp], 21
	mov	DWORD PTR 160[rsp], 20
	mov	DWORD PTR 152[rsp], 19
	mov	DWORD PTR 144[rsp], 18
	mov	DWORD PTR 136[rsp], 17
	mov	DWORD PTR 128[rsp], 16
	mov	DWORD PTR 120[rsp], 15
	mov	DWORD PTR 112[rsp], 14
	mov	DWORD PTR 104[rsp], 13
	mov	DWORD PTR 96[rsp], 12
	mov	DWORD PTR 88[rsp], 11
	mov	DWORD PTR 80[rsp], 10
	mov	DWORD PTR 72[rsp], 9
	mov	DWORD PTR 64[rsp], 8
	mov	DWORD PTR 56[rsp], 7
	mov	DWORD PTR 48[rsp], 6
	mov	DWORD PTR 40[rsp], 5
	mov	DWORD PTR 32[rsp], 4
	mov	r9d, 3
	mov	r8d, 2
	mov	edx, 1
	mov	rcx, rax
	call	_Z8hiMyLangiiiiiiiiiiiiiiiiiiiiiiiiii
	mov	DWORD PTR 96[rsp], 13
	mov	DWORD PTR 88[rsp], 12
	mov	DWORD PTR 80[rsp], 11
	mov	DWORD PTR 72[rsp], 10
	mov	DWORD PTR 64[rsp], 9
	mov	DWORD PTR 56[rsp], 8
	mov	DWORD PTR 48[rsp], 7
	mov	DWORD PTR 40[rsp], 6
	mov	DWORD PTR 32[rsp], 5
	mov	r9d, 4
	mov	r8d, 3
	mov	edx, 2
	mov	ecx, 1
	call	_Z3dddiiiiiiiiiiiii
	mov	eax, 0
	add	rsp, 336
	pop	rbp
	ret
	.seh_endproc
	.def	__main;	.scl	2;	.type	32;	.endef
	.ident	"GCC: (MinGW-W64 x86_64-ucrt-posix-seh, built by Brecht Sanders, r1) 14.2.0"
